target datalayout = "e-m:e-p270:32:32-p271:32:32-p272:64:64-i64:64-i128:128-f80:128-n8:16:32:64-S128"
target triple = "x86_64-pc-linux-gnu"

%class.btSequentialImpulseConstraintSolverMt = type { %class.btSequentialImpulseConstraintSolver, %struct.btBatchedConstraints, %struct.btBatchedConstraints, i32, i8, i8, [2 x i8], %class.btAlignedObjectArray.10, %class.btAlignedObjectArray.2, %class.btSpinMutex, [64 x i8], %class.btSpinMutex, %class.btAlignedObjectArray.8 }
%class.btSequentialImpulseConstraintSolver = type { %class.btConstraintSolver, %class.btAlignedObjectArray, %class.btAlignedObjectArray.0, %class.btAlignedObjectArray.0, %class.btAlignedObjectArray.0, %class.btAlignedObjectArray.0, %class.btAlignedObjectArray.2, %class.btAlignedObjectArray.2, %class.btAlignedObjectArray.2, %class.btAlignedObjectArray.4, i32, i32, %class.btAlignedObjectArray.2, ptr, ptr, ptr, i32, float, i64, %struct.btSolverAnalyticsData }
%class.btConstraintSolver = type { ptr }
%class.btAlignedObjectArray = type <{ [4 x i8], i32, i32, [4 x i8], ptr, i8, [7 x i8] }>
%class.btAlignedObjectArray.0 = type <{ [4 x i8], i32, i32, [4 x i8], ptr, i8, [7 x i8] }>
%class.btAlignedObjectArray.4 = type <{ [4 x i8], i32, i32, [4 x i8], ptr, i8, [7 x i8] }>
%struct.btSolverAnalyticsData = type { i32, i32, i32, i32, i32, double }
%struct.btBatchedConstraints = type { %class.btAlignedObjectArray.2, %class.btAlignedObjectArray.6, %class.btAlignedObjectArray.6, %class.btAlignedObjectArray.8, %class.btAlignedObjectArray.2, ptr }
%class.btAlignedObjectArray.6 = type <{ [4 x i8], i32, i32, [4 x i8], ptr, i8, [7 x i8] }>
%class.btAlignedObjectArray.10 = type <{ [4 x i8], i32, i32, [4 x i8], ptr, i8, [7 x i8] }>
%class.btAlignedObjectArray.2 = type <{ [4 x i8], i32, i32, [4 x i8], ptr, i8, [7 x i8] }>
%class.btSpinMutex = type { i32 }
%class.btAlignedObjectArray.8 = type <{ [4 x i8], i32, i32, [4 x i8], ptr, i8, [7 x i8] }>

; Function Attrs: mustprogress uwtable
define linkonce_odr dso_local void @_ZN18btAlignedAllocatorIN37btSequentialImpulseConstraintSolverMt27btContactManifoldCachedInfoELj16EE10deallocateEPS1_(ptr noundef nonnull align 1 dereferenceable(1) %0, ptr noundef %1) #2 comdat align 2 {
  %3 = alloca ptr, align 8
  %4 = alloca ptr, align 8
  store ptr %0, ptr %3, align 8, !tbaa !369
  store ptr %1, ptr %4, align 8, !tbaa !147
  %5 = load ptr, ptr %4, align 8, !tbaa !147
  call void @_Z21btAlignedFreeInternalPv(ptr noundef %5)
  ret void
}

; Function Attrs: mustprogress uwtable
define linkonce_odr dso_local void @_ZN18btAlignedAllocatorIiLj16EE10deallocateEPi(ptr noundef nonnull align 1 dereferenceable(1) %0, ptr noundef %1) #2 comdat align 2 {
  %3 = alloca ptr, align 8
  %4 = alloca ptr, align 8
  store ptr %0, ptr %3, align 8, !tbaa !359
  store ptr %1, ptr %4, align 8, !tbaa !144
  %5 = load ptr, ptr %4, align 8, !tbaa !144
  call void @_Z21btAlignedFreeInternalPv(ptr noundef %5)
  ret void
}

; Function Attrs: mustprogress uwtable
define linkonce_odr dso_local void @_ZN18btAlignedAllocatorIcLj16EE10deallocateEPc(ptr noundef nonnull align 1 dereferenceable(1) %0, ptr noundef %1) #2 comdat align 2 {
  %3 = alloca ptr, align 8
  %4 = alloca ptr, align 8
  store ptr %0, ptr %3, align 8, !tbaa !361
  store ptr %1, ptr %4, align 8, !tbaa !368
  %5 = load ptr, ptr %4, align 8, !tbaa !368
  call void @_Z21btAlignedFreeInternalPv(ptr noundef %5)
  ret void
}

; Function Attrs: inlinehint mustprogress nounwind uwtable
define linkonce_odr dso_local void @_ZN20btAlignedObjectArrayIN37btSequentialImpulseConstraintSolverMt27btContactManifoldCachedInfoEE4initEv(ptr noundef nonnull align 8 dereferenceable(25) %0) #4 comdat align 2 {
  %2 = alloca ptr, align 8
  store ptr %0, ptr %2, align 8, !tbaa !54
  %3 = load ptr, ptr %2, align 8
  %4 = getelementptr inbounds nuw %class.btAlignedObjectArray.10, ptr %3, i32 0, i32 5
  store i8 1, ptr %4, align 8, !tbaa !371
  %5 = getelementptr inbounds nuw %class.btAlignedObjectArray.10, ptr %3, i32 0, i32 4
  store ptr null, ptr %5, align 8, !tbaa !173
  %6 = getelementptr inbounds nuw %class.btAlignedObjectArray.10, ptr %3, i32 0, i32 1
  store i32 0, ptr %6, align 4, !tbaa !172
  %7 = getelementptr inbounds nuw %class.btAlignedObjectArray.10, ptr %3, i32 0, i32 2
  store i32 0, ptr %7, align 8, !tbaa !372
  ret void
}

; Function Attrs: inlinehint mustprogress uwtable
define linkonce_odr dso_local void @_ZN20btAlignedObjectArrayIN37btSequentialImpulseConstraintSolverMt27btContactManifoldCachedInfoEE10deallocateEv(ptr noundef nonnull align 8 dereferenceable(25) %0) #8 comdat align 2 {
  %2 = alloca ptr, align 8
  store ptr %0, ptr %2, align 8, !tbaa !54
  %3 = load ptr, ptr %2, align 8
  %4 = getelementptr inbounds nuw %class.btAlignedObjectArray.10, ptr %3, i32 0, i32 4
  %5 = load ptr, ptr %4, align 8, !tbaa !173
  %6 = icmp ne ptr %5, null
  br i1 %6, label %7, label %16

7:                                                ; preds = %1
  %8 = getelementptr inbounds nuw %class.btAlignedObjectArray.10, ptr %3, i32 0, i32 5
  %9 = load i8, ptr %8, align 8, !tbaa !371, !range !109, !noundef !110
  %10 = trunc i8 %9 to i1
  br i1 %10, label %11, label %14

11:                                               ; preds = %7
  %12 = getelementptr inbounds nuw %class.btAlignedObjectArray.10, ptr %3, i32 0, i32 4
  %13 = load ptr, ptr %12, align 8, !tbaa !173
  call void @_ZN18btAlignedAllocatorIN37btSequentialImpulseConstraintSolverMt27btContactManifoldCachedInfoELj16EE10deallocateEPS1_(ptr noundef nonnull align 1 dereferenceable(1) %3, ptr noundef %13)
  br label %14

14:                                               ; preds = %11, %7
  %15 = getelementptr inbounds nuw %class.btAlignedObjectArray.10, ptr %3, i32 0, i32 4
  store ptr null, ptr %15, align 8, !tbaa !173
  br label %16

16:                                               ; preds = %14, %1
  ret void
}

; Function Attrs: inlinehint mustprogress nounwind uwtable
define linkonce_odr dso_local void @_ZN20btAlignedObjectArrayIN37btSequentialImpulseConstraintSolverMt27btContactManifoldCachedInfoEE7destroyEii(ptr noundef nonnull align 8 dereferenceable(25) %0, i32 noundef %1, i32 noundef %2) #4 comdat align 2 {
  %4 = alloca ptr, align 8
  %5 = alloca i32, align 4
  %6 = alloca i32, align 4
  %7 = alloca i32, align 4
  store ptr %0, ptr %4, align 8, !tbaa !54
  store i32 %1, ptr %5, align 4, !tbaa !9
  store i32 %2, ptr %6, align 4, !tbaa !9
  call void @llvm.lifetime.start.p0(i64 4, ptr %7) #16
  %8 = load i32, ptr %5, align 4, !tbaa !9
  store i32 %8, ptr %7, align 4, !tbaa !9
  br label %9

9:                                                ; preds = %14, %3
  %10 = load i32, ptr %7, align 4, !tbaa !9
  %11 = load i32, ptr %6, align 4, !tbaa !9
  %12 = icmp slt i32 %10, %11
  br i1 %12, label %13, label %17

13:                                               ; preds = %9
  br label %14

14:                                               ; preds = %13
  %15 = load i32, ptr %7, align 4, !tbaa !9
  %16 = add nsw i32 %15, 1
  store i32 %16, ptr %7, align 4, !tbaa !9
  br label %9, !llvm.loop !373

17:                                               ; preds = %9
  call void @llvm.lifetime.end.p0(i64 4, ptr %7) #16
  ret void
}

; Function Attrs: inlinehint mustprogress nounwind uwtable
define linkonce_odr dso_local noundef i32 @_ZNK20btAlignedObjectArrayIN37btSequentialImpulseConstraintSolverMt27btContactManifoldCachedInfoEE4sizeEv(ptr noundef nonnull align 8 dereferenceable(25) %0) #4 comdat align 2 {
  %2 = alloca ptr, align 8
  store ptr %0, ptr %2, align 8, !tbaa !54
  %3 = load ptr, ptr %2, align 8
  %4 = getelementptr inbounds nuw %class.btAlignedObjectArray.10, ptr %3, i32 0, i32 1
  %5 = load i32, ptr %4, align 4, !tbaa !172
  ret i32 %5
}

; Function Attrs: inlinehint mustprogress nounwind uwtable
define linkonce_odr dso_local void @_ZN20btAlignedObjectArrayIiE4initEv(ptr noundef nonnull align 8 dereferenceable(25) %0) #4 comdat align 2 {
  %2 = alloca ptr, align 8
  store ptr %0, ptr %2, align 8, !tbaa !56
  %3 = load ptr, ptr %2, align 8
  %4 = getelementptr inbounds nuw %class.btAlignedObjectArray.2, ptr %3, i32 0, i32 5
  store i8 1, ptr %4, align 8, !tbaa !183
  %5 = getelementptr inbounds nuw %class.btAlignedObjectArray.2, ptr %3, i32 0, i32 4
  store ptr null, ptr %5, align 8, !tbaa !106
  %6 = getelementptr inbounds nuw %class.btAlignedObjectArray.2, ptr %3, i32 0, i32 1
  store i32 0, ptr %6, align 4, !tbaa !143
  %7 = getelementptr inbounds nuw %class.btAlignedObjectArray.2, ptr %3, i32 0, i32 2
  store i32 0, ptr %7, align 8, !tbaa !184
  ret void
}

; Function Attrs: inlinehint mustprogress uwtable
define linkonce_odr dso_local void @_ZN20btAlignedObjectArrayIiE10deallocateEv(ptr noundef nonnull align 8 dereferenceable(25) %0) #8 comdat align 2 {
  %2 = alloca ptr, align 8
  store ptr %0, ptr %2, align 8, !tbaa !56
  %3 = load ptr, ptr %2, align 8
  %4 = getelementptr inbounds nuw %class.btAlignedObjectArray.2, ptr %3, i32 0, i32 4
  %5 = load ptr, ptr %4, align 8, !tbaa !106
  %6 = icmp ne ptr %5, null
  br i1 %6, label %7, label %16

7:                                                ; preds = %1
  %8 = getelementptr inbounds nuw %class.btAlignedObjectArray.2, ptr %3, i32 0, i32 5
  %9 = load i8, ptr %8, align 8, !tbaa !183, !range !109, !noundef !110
  %10 = trunc i8 %9 to i1
  br i1 %10, label %11, label %14

11:                                               ; preds = %7
  %12 = getelementptr inbounds nuw %class.btAlignedObjectArray.2, ptr %3, i32 0, i32 4
  %13 = load ptr, ptr %12, align 8, !tbaa !106
  call void @_ZN18btAlignedAllocatorIiLj16EE10deallocateEPi(ptr noundef nonnull align 1 dereferenceable(1) %3, ptr noundef %13)
  br label %14

14:                                               ; preds = %11, %7
  %15 = getelementptr inbounds nuw %class.btAlignedObjectArray.2, ptr %3, i32 0, i32 4
  store ptr null, ptr %15, align 8, !tbaa !106
  br label %16

16:                                               ; preds = %14, %1
  ret void
}

; Function Attrs: inlinehint mustprogress nounwind uwtable
define linkonce_odr dso_local void @_ZN20btAlignedObjectArrayIiE7destroyEii(ptr noundef nonnull align 8 dereferenceable(25) %0, i32 noundef %1, i32 noundef %2) #4 comdat align 2 {
  %4 = alloca ptr, align 8
  %5 = alloca i32, align 4
  %6 = alloca i32, align 4
  %7 = alloca i32, align 4
  store ptr %0, ptr %4, align 8, !tbaa !56
  store i32 %1, ptr %5, align 4, !tbaa !9
  store i32 %2, ptr %6, align 4, !tbaa !9
  call void @llvm.lifetime.start.p0(i64 4, ptr %7) #16
  %8 = load i32, ptr %5, align 4, !tbaa !9
  store i32 %8, ptr %7, align 4, !tbaa !9
  br label %9

9:                                                ; preds = %14, %3
  %10 = load i32, ptr %7, align 4, !tbaa !9
  %11 = load i32, ptr %6, align 4, !tbaa !9
  %12 = icmp slt i32 %10, %11
  br i1 %12, label %13, label %17

13:                                               ; preds = %9
  br label %14

14:                                               ; preds = %13
  %15 = load i32, ptr %7, align 4, !tbaa !9
  %16 = add nsw i32 %15, 1
  store i32 %16, ptr %7, align 4, !tbaa !9
  br label %9, !llvm.loop !366

17:                                               ; preds = %9
  call void @llvm.lifetime.end.p0(i64 4, ptr %7) #16
  ret void
}

; Function Attrs: inlinehint mustprogress nounwind uwtable
define linkonce_odr dso_local noundef i32 @_ZNK20btAlignedObjectArrayIiE4sizeEv(ptr noundef nonnull align 8 dereferenceable(25) %0) #4 comdat align 2 {
  %2 = alloca ptr, align 8
  store ptr %0, ptr %2, align 8, !tbaa !56
  %3 = load ptr, ptr %2, align 8
  %4 = getelementptr inbounds nuw %class.btAlignedObjectArray.2, ptr %3, i32 0, i32 1
  %5 = load i32, ptr %4, align 4, !tbaa !143
  ret i32 %5
}

; Function Attrs: inlinehint mustprogress nounwind uwtable
define linkonce_odr dso_local void @_ZN20btAlignedObjectArrayIcE4initEv(ptr noundef nonnull align 8 dereferenceable(25) %0) #4 comdat align 2 {
  %2 = alloca ptr, align 8
  store ptr %0, ptr %2, align 8, !tbaa !61
  %3 = load ptr, ptr %2, align 8
  %4 = getelementptr inbounds nuw %class.btAlignedObjectArray.8, ptr %3, i32 0, i32 5
  store i8 1, ptr %4, align 8, !tbaa !363
  %5 = getelementptr inbounds nuw %class.btAlignedObjectArray.8, ptr %3, i32 0, i32 4
  store ptr null, ptr %5, align 8, !tbaa !270
  %6 = getelementptr inbounds nuw %class.btAlignedObjectArray.8, ptr %3, i32 0, i32 1
  store i32 0, ptr %6, align 4, !tbaa !364
  %7 = getelementptr inbounds nuw %class.btAlignedObjectArray.8, ptr %3, i32 0, i32 2
  store i32 0, ptr %7, align 8, !tbaa !365
  ret void
}

; Function Attrs: inlinehint mustprogress uwtable
define linkonce_odr dso_local void @_ZN20btAlignedObjectArrayIcE10deallocateEv(ptr noundef nonnull align 8 dereferenceable(25) %0) #8 comdat align 2 {
  %2 = alloca ptr, align 8
  store ptr %0, ptr %2, align 8, !tbaa !61
  %3 = load ptr, ptr %2, align 8
  %4 = getelementptr inbounds nuw %class.btAlignedObjectArray.8, ptr %3, i32 0, i32 4
  %5 = load ptr, ptr %4, align 8, !tbaa !270
  %6 = icmp ne ptr %5, null
  br i1 %6, label %7, label %16

7:                                                ; preds = %1
  %8 = getelementptr inbounds nuw %class.btAlignedObjectArray.8, ptr %3, i32 0, i32 5
  %9 = load i8, ptr %8, align 8, !tbaa !363, !range !109, !noundef !110
  %10 = trunc i8 %9 to i1
  br i1 %10, label %11, label %14

11:                                               ; preds = %7
  %12 = getelementptr inbounds nuw %class.btAlignedObjectArray.8, ptr %3, i32 0, i32 4
  %13 = load ptr, ptr %12, align 8, !tbaa !270
  call void @_ZN18btAlignedAllocatorIcLj16EE10deallocateEPc(ptr noundef nonnull align 1 dereferenceable(1) %3, ptr noundef %13)
  br label %14

14:                                               ; preds = %11, %7
  %15 = getelementptr inbounds nuw %class.btAlignedObjectArray.8, ptr %3, i32 0, i32 4
  store ptr null, ptr %15, align 8, !tbaa !270
  br label %16

16:                                               ; preds = %14, %1
  ret void
}

; Function Attrs: inlinehint mustprogress nounwind uwtable
define linkonce_odr dso_local void @_ZN20btAlignedObjectArrayIcE7destroyEii(ptr noundef nonnull align 8 dereferenceable(25) %0, i32 noundef %1, i32 noundef %2) #4 comdat align 2 {
  %4 = alloca ptr, align 8
  %5 = alloca i32, align 4
  %6 = alloca i32, align 4
  %7 = alloca i32, align 4
  store ptr %0, ptr %4, align 8, !tbaa !61
  store i32 %1, ptr %5, align 4, !tbaa !9
  store i32 %2, ptr %6, align 4, !tbaa !9
  call void @llvm.lifetime.start.p0(i64 4, ptr %7) #16
  %8 = load i32, ptr %5, align 4, !tbaa !9
  store i32 %8, ptr %7, align 4, !tbaa !9
  br label %9

9:                                                ; preds = %14, %3
  %10 = load i32, ptr %7, align 4, !tbaa !9
  %11 = load i32, ptr %6, align 4, !tbaa !9
  %12 = icmp slt i32 %10, %11
  br i1 %12, label %13, label %17

13:                                               ; preds = %9
  br label %14

14:                                               ; preds = %13
  %15 = load i32, ptr %7, align 4, !tbaa !9
  %16 = add nsw i32 %15, 1
  store i32 %16, ptr %7, align 4, !tbaa !9
  br label %9, !llvm.loop !367

17:                                               ; preds = %9
  call void @llvm.lifetime.end.p0(i64 4, ptr %7) #16
  ret void
}

; Function Attrs: inlinehint mustprogress nounwind uwtable
define linkonce_odr dso_local noundef i32 @_ZNK20btAlignedObjectArrayIcE4sizeEv(ptr noundef nonnull align 8 dereferenceable(25) %0) #4 comdat align 2 {
  %2 = alloca ptr, align 8
  store ptr %0, ptr %2, align 8, !tbaa !61
  %3 = load ptr, ptr %2, align 8
  %4 = getelementptr inbounds nuw %class.btAlignedObjectArray.8, ptr %3, i32 0, i32 1
  %5 = load i32, ptr %4, align 4, !tbaa !364
  ret i32 %5
}

; Function Attrs: inlinehint mustprogress uwtable
define linkonce_odr dso_local void @_ZN20btAlignedObjectArrayIN37btSequentialImpulseConstraintSolverMt27btContactManifoldCachedInfoEE5clearEv(ptr noundef nonnull align 8 dereferenceable(25) %0) #8 comdat align 2 {
  %2 = alloca ptr, align 8
  store ptr %0, ptr %2, align 8, !tbaa !54
  %3 = load ptr, ptr %2, align 8
  %4 = call noundef i32 @_ZNK20btAlignedObjectArrayIN37btSequentialImpulseConstraintSolverMt27btContactManifoldCachedInfoEE4sizeEv(ptr noundef nonnull align 8 dereferenceable(25) %3)
  call void @_ZN20btAlignedObjectArrayIN37btSequentialImpulseConstraintSolverMt27btContactManifoldCachedInfoEE7destroyEii(ptr noundef nonnull align 8 dereferenceable(25) %3, i32 noundef 0, i32 noundef %4)
  call void @_ZN20btAlignedObjectArrayIN37btSequentialImpulseConstraintSolverMt27btContactManifoldCachedInfoEE10deallocateEv(ptr noundef nonnull align 8 dereferenceable(25) %3)
  call void @_ZN20btAlignedObjectArrayIN37btSequentialImpulseConstraintSolverMt27btContactManifoldCachedInfoEE4initEv(ptr noundef nonnull align 8 dereferenceable(25) %3)
  ret void
}

; Function Attrs: inlinehint mustprogress uwtable
define linkonce_odr dso_local void @_ZN20btAlignedObjectArrayIiE5clearEv(ptr noundef nonnull align 8 dereferenceable(25) %0) #8 comdat align 2 {
  %2 = alloca ptr, align 8
  store ptr %0, ptr %2, align 8, !tbaa !56
  %3 = load ptr, ptr %2, align 8
  %4 = call noundef i32 @_ZNK20btAlignedObjectArrayIiE4sizeEv(ptr noundef nonnull align 8 dereferenceable(25) %3)
  call void @_ZN20btAlignedObjectArrayIiE7destroyEii(ptr noundef nonnull align 8 dereferenceable(25) %3, i32 noundef 0, i32 noundef %4)
  call void @_ZN20btAlignedObjectArrayIiE10deallocateEv(ptr noundef nonnull align 8 dereferenceable(25) %3)
  call void @_ZN20btAlignedObjectArrayIiE4initEv(ptr noundef nonnull align 8 dereferenceable(25) %3)
  ret void
}

; Function Attrs: inlinehint mustprogress uwtable
define linkonce_odr dso_local void @_ZN20btAlignedObjectArrayIcE5clearEv(ptr noundef nonnull align 8 dereferenceable(25) %0) #8 comdat align 2 {
  %2 = alloca ptr, align 8
  store ptr %0, ptr %2, align 8, !tbaa !61
  %3 = load ptr, ptr %2, align 8
  %4 = call noundef i32 @_ZNK20btAlignedObjectArrayIcE4sizeEv(ptr noundef nonnull align 8 dereferenceable(25) %3)
  call void @_ZN20btAlignedObjectArrayIcE7destroyEii(ptr noundef nonnull align 8 dereferenceable(25) %3, i32 noundef 0, i32 noundef %4)
  call void @_ZN20btAlignedObjectArrayIcE10deallocateEv(ptr noundef nonnull align 8 dereferenceable(25) %3)
  call void @_ZN20btAlignedObjectArrayIcE4initEv(ptr noundef nonnull align 8 dereferenceable(25) %3)
  ret void
}

; Function Attrs: mustprogress nounwind uwtable
define linkonce_odr dso_local void @_ZN20btAlignedObjectArrayIN37btSequentialImpulseConstraintSolverMt27btContactManifoldCachedInfoEED2Ev(ptr noundef nonnull align 8 dereferenceable(25) %0) unnamed_addr #1 comdat align 2 personality ptr @__gxx_personality_v0 {
  %2 = alloca ptr, align 8
  store ptr %0, ptr %2, align 8, !tbaa !54
  %3 = load ptr, ptr %2, align 8
  invoke void @_ZN20btAlignedObjectArrayIN37btSequentialImpulseConstraintSolverMt27btContactManifoldCachedInfoEE5clearEv(ptr noundef nonnull align 8 dereferenceable(25) %3)
          to label %4 unwind label %5

4:                                                ; preds = %1
  ret void

5:                                                ; preds = %1
  %6 = landingpad { ptr, i32 }
          catch ptr null
  %7 = extractvalue { ptr, i32 } %6, 0
  call void @__clang_call_terminate(ptr %7) #17
  unreachable
}

; Function Attrs: mustprogress nounwind uwtable
define linkonce_odr dso_local void @_ZN20btAlignedObjectArrayIiED2Ev(ptr noundef nonnull align 8 dereferenceable(25) %0) unnamed_addr #1 comdat align 2 personality ptr @__gxx_personality_v0 {
  %2 = alloca ptr, align 8
  store ptr %0, ptr %2, align 8, !tbaa !56
  %3 = load ptr, ptr %2, align 8
  invoke void @_ZN20btAlignedObjectArrayIiE5clearEv(ptr noundef nonnull align 8 dereferenceable(25) %3)
          to label %4 unwind label %5

4:                                                ; preds = %1
  ret void

5:                                                ; preds = %1
  %6 = landingpad { ptr, i32 }
          catch ptr null
  %7 = extractvalue { ptr, i32 } %6, 0
  call void @__clang_call_terminate(ptr %7) #17
  unreachable
}

; Function Attrs: mustprogress nounwind uwtable
define linkonce_odr dso_local void @_ZN20btAlignedObjectArrayIcED2Ev(ptr noundef nonnull align 8 dereferenceable(25) %0) unnamed_addr #1 comdat align 2 personality ptr @__gxx_personality_v0 {
  %2 = alloca ptr, align 8
  store ptr %0, ptr %2, align 8, !tbaa !61
  %3 = load ptr, ptr %2, align 8
  invoke void @_ZN20btAlignedObjectArrayIcE5clearEv(ptr noundef nonnull align 8 dereferenceable(25) %3)
          to label %4 unwind label %5

4:                                                ; preds = %1
  ret void

5:                                                ; preds = %1
  %6 = landingpad { ptr, i32 }
          catch ptr null
  %7 = extractvalue { ptr, i32 } %6, 0
  call void @__clang_call_terminate(ptr %7) #17
  unreachable
}

; Function Attrs: mustprogress nounwind uwtable
define dso_local void @_ZN37btSequentialImpulseConstraintSolverMtD2Ev(ptr noundef nonnull align 8 dereferenceable(920) %0) unnamed_addr #1 align 2 {
  %2 = alloca ptr, align 8
  store ptr %0, ptr %2, align 8, !tbaa !12
  %3 = load ptr, ptr %2, align 8
  store ptr getelementptr inbounds inrange(-16, 184) ({ [25 x ptr] }, ptr @_ZTV37btSequentialImpulseConstraintSolverMt, i32 0, i32 0, i32 2), ptr %3, align 8, !tbaa !14
  %4 = getelementptr inbounds nuw %class.btSequentialImpulseConstraintSolverMt, ptr %3, i32 0, i32 12
  call void @_ZN20btAlignedObjectArrayIcED2Ev(ptr noundef nonnull align 8 dereferenceable(25) %4) #16
  %5 = getelementptr inbounds nuw %class.btSequentialImpulseConstraintSolverMt, ptr %3, i32 0, i32 8
  call void @_ZN20btAlignedObjectArrayIiED2Ev(ptr noundef nonnull align 8 dereferenceable(25) %5) #16
  %6 = getelementptr inbounds nuw %class.btSequentialImpulseConstraintSolverMt, ptr %3, i32 0, i32 7
  call void @_ZN20btAlignedObjectArrayIN37btSequentialImpulseConstraintSolverMt27btContactManifoldCachedInfoEED2Ev(ptr noundef nonnull align 8 dereferenceable(25) %6) #16
  %7 = getelementptr inbounds nuw %class.btSequentialImpulseConstraintSolverMt, ptr %3, i32 0, i32 2
  call void @_ZN20btBatchedConstraintsD2Ev(ptr noundef nonnull align 8 dereferenceable(168) %7) #16
  %8 = getelementptr inbounds nuw %class.btSequentialImpulseConstraintSolverMt, ptr %3, i32 0, i32 1
  call void @_ZN20btBatchedConstraintsD2Ev(ptr noundef nonnull align 8 dereferenceable(168) %8) #16
  call void @_ZN35btSequentialImpulseConstraintSolverD2Ev(ptr noundef nonnull align 8 dereferenceable(408) %3) #16
  ret void
}